target datalayout = "e-m:e-p270:32:32-p271:32:32-p272:64:64-i64:64-i128:128-f80:128-n8:16:32:64-S128"
target triple = "x86_64-pc-linux-gnu"

%struct._k12_hdls_t = type { ptr, ptr, ptr }

@.str.42 = private unnamed_addr constant [2 x i8] c":\00", align 1

; Function Attrs: nounwind uwtable
define internal ptr @k12_copy_cb(ptr noundef %0, ptr noundef %1, i64 noundef %2) #0 {
  %4 = alloca ptr, align 8
  %5 = alloca ptr, align 8
  %6 = alloca i64, align 8
  %7 = alloca ptr, align 8
  %8 = alloca ptr, align 8
  %9 = alloca ptr, align 8
  %10 = alloca i32, align 4
  store ptr %0, ptr %4, align 8
  store ptr %1, ptr %5, align 8
  store i64 %2, ptr %6, align 8
  %11 = load ptr, ptr %4, align 8
  store ptr %11, ptr %7, align 8
  %12 = load ptr, ptr %5, align 8
  store ptr %12, ptr %8, align 8
  %13 = load ptr, ptr %7, align 8
  %14 = getelementptr inbounds %struct._k12_hdls_t, ptr %13, i32 0, i32 1
  %15 = load ptr, ptr %14, align 8
  %16 = call ptr @g_strsplit(ptr noundef %15, ptr noundef @.str.42, i32 noundef 0)
  store ptr %16, ptr %9, align 8
  store i32 0, ptr %10, align 4
  br label %17

17:                                               ; preds = %32, %3
  %18 = load ptr, ptr %9, align 8
  %19 = load i32, ptr %10, align 4
  %20 = zext i32 %19 to i64
  %21 = getelementptr ptr, ptr %18, i64 %20
  %22 = load ptr, ptr %21, align 8
  %23 = icmp ne ptr %22, null
  br i1 %23, label %24, label %35

24:                                               ; preds = %17
  %25 = load ptr, ptr %9, align 8
  %26 = load i32, ptr %10, align 4
  %27 = zext i32 %26 to i64
  %28 = getelementptr ptr, ptr %25, i64 %27
  %29 = load ptr, ptr %28, align 8
  %30 = call ptr @g_strchug(ptr noundef %29)
  %31 = call ptr @g_strchomp(ptr noundef %30)
  br label %32

32:                                               ; preds = %24
  %33 = load i32, ptr %10, align 4
  %34 = add i32 %33, 1
  store i32 %34, ptr %10, align 4
  br label %17, !llvm.loop !9

35:                                               ; preds = %17
  %36 = load ptr, ptr %8, align 8
  %37 = getelementptr inbounds %struct._k12_hdls_t, ptr %36, i32 0, i32 0
  %38 = load ptr, ptr %37, align 8
  %39 = call noalias ptr @g_strdup(ptr noundef %38)
  %40 = load ptr, ptr %7, align 8
  %41 = getelementptr inbounds %struct._k12_hdls_t, ptr %40, i32 0, i32 0
  store ptr %39, ptr %41, align 8
  %42 = load ptr, ptr %8, align 8
  %43 = getelementptr inbounds %struct._k12_hdls_t, ptr %42, i32 0, i32 1
  %44 = load ptr, ptr %43, align 8
  %45 = call noalias ptr @g_strdup(ptr noundef %44)
  %46 = load ptr, ptr %7, align 8
  %47 = getelementptr inbounds %struct._k12_hdls_t, ptr %46, i32 0, i32 1
  store ptr %45, ptr %47, align 8
  %48 = load ptr, ptr %8, align 8
  %49 = getelementptr inbounds %struct._k12_hdls_t, ptr %48, i32 0, i32 2
  %50 = load ptr, ptr %49, align 8
  %51 = load i32, ptr %10, align 4
  %52 = add i32 %51, 1
  %53 = zext i32 %52 to i64
  %54 = mul i64 8, %53
  %55 = trunc i64 %54 to i32
  %56 = zext i32 %55 to i64
  %57 = call ptr @g_memdup2(ptr noundef %50, i64 noundef %56) #6
  %58 = load ptr, ptr %7, align 8
  %59 = getelementptr inbounds %struct._k12_hdls_t, ptr %58, i32 0, i32 2
  store ptr %57, ptr %59, align 8
  %60 = load ptr, ptr %9, align 8
  call void @g_strfreev(ptr noundef %60)
  %61 = load ptr, ptr %4, align 8
  ret ptr %61
}