; Function Attrs: nounwind uwtable
define internal noundef ptr @k12_copy_cb(ptr noundef returned %0, ptr noundef readonly captures(none) %1, i64 %2) #0 {
  %4 = getelementptr inbounds nuw i8, ptr %0, i64 8
  %5 = load ptr, ptr %4, align 8
  %6 = tail call ptr @g_strsplit(ptr noundef %5, ptr noundef nonnull @.str.42, i32 noundef 0) #5
  %7 = load ptr, ptr %6, align 8
  %.not17 = icmp eq ptr %7, null
  br i1 %.not17, label %._crit_edge, label %.lr.ph

.lr.ph:                                           ; preds = %3, %.lr.ph
  %8 = phi ptr [ %14, %.lr.ph ], [ %7, %3 ]
  %.018 = phi i32 [ %11, %.lr.ph ], [ 0, %3 ]
  %9 = tail call ptr @g_strchug(ptr noundef nonnull %8) #5
  %10 = tail call ptr @g_strchomp(ptr noundef %9) #5
  %11 = add i32 %.018, 1
  %12 = zext i32 %11 to i64
  %13 = getelementptr ptr, ptr %6, i64 %12
  %14 = load ptr, ptr %13, align 8
  %.not = icmp eq ptr %14, null
  br i1 %.not, label %._crit_edge.loopexit, label %.lr.ph, !llvm.loop !10

._crit_edge.loopexit:                             ; preds = %.lr.ph
  %15 = shl i32 %11, 3
  %16 = add i32 %15, 8
  %17 = zext i32 %16 to i64
  br label %._crit_edge

._crit_edge:                                      ; preds = %._crit_edge.loopexit, %3
  %.0.lcssa = phi i64 [ 8, %3 ], [ %17, %._crit_edge.loopexit ]
  %18 = load ptr, ptr %1, align 8
  %19 = tail call noalias ptr @g_strdup(ptr noundef %18) #5
  store ptr %19, ptr %0, align 8
  %20 = getelementptr inbounds nuw i8, ptr %1, i64 8
  %21 = load ptr, ptr %20, align 8
  %22 = tail call noalias ptr @g_strdup(ptr noundef %21) #5
  store ptr %22, ptr %4, align 8
  %23 = getelementptr inbounds nuw i8, ptr %1, i64 16
  %24 = load ptr, ptr %23, align 8
  %25 = tail call ptr @g_memdup2(ptr noundef %24, i64 noundef %.0.lcssa) #7
  %26 = getelementptr inbounds nuw i8, ptr %0, i64 16
  store ptr %25, ptr %26, align 8
  tail call void @g_strfreev(ptr noundef nonnull %6) #5
  ret ptr %0
}